; ModuleID = '53/1326.c'
source_filename = "53/1326.c"
target datalayout = "e-m:e-p270:32:32-p271:32:32-p272:64:64-i64:64-f80:128-n8:16:32:64-S128"
target triple = "x86_64-pc-linux-gnu"

@.str = private unnamed_addr constant [3 x i8] c"%d\00", align 1
@.str.1 = private unnamed_addr constant [4 x i8] c",%d\00", align 1

; Function Attrs: noinline nounwind uwtable
define dso_local void @main() #0 {
  %1 = alloca [300 x i32], align 16
  %2 = alloca i32, align 4
  %3 = alloca i32, align 4
  %4 = alloca i32, align 4
  %5 = call i32 (i8*, ...) @__isoc99_scanf(i8* getelementptr inbounds ([3 x i8], [3 x i8]* @.str, i64 0, i64 0), i32* %2)
  store i32 0, i32* %3, align 4
  br label %6

6:                                                ; preds = %55, %0
  %7 = load i32, i32* %3, align 4
  %8 = load i32, i32* %2, align 4
  %9 = icmp slt i32 %7, %8
  br i1 %9, label %10, label %58

10:                                               ; preds = %6
  %11 = load i32, i32* %3, align 4
  %12 = sext i32 %11 to i64
  %13 = getelementptr inbounds [300 x i32], [300 x i32]* %1, i64 0, i64 %12
  %14 = call i32 (i8*, ...) @__isoc99_scanf(i8* getelementptr inbounds ([3 x i8], [3 x i8]* @.str, i64 0, i64 0), i32* %13)
  %15 = load i32, i32* %3, align 4
  %16 = icmp eq i32 %15, 0
  br i1 %16, label %17, label %23

17:                                               ; preds = %10
  %18 = load i32, i32* %3, align 4
  %19 = sext i32 %18 to i64
  %20 = getelementptr inbounds [300 x i32], [300 x i32]* %1, i64 0, i64 %19
  %21 = load i32, i32* %20, align 4
  %22 = call i32 (i8*, ...) @printf(i8* getelementptr inbounds ([3 x i8], [3 x i8]* @.str, i64 0, i64 0), i32 %21)
  br label %54

23:                                               ; preds = %10
  store i32 0, i32* %4, align 4
  br label %24

24:                                               ; preds = %40, %23
  %25 = load i32, i32* %4, align 4
  %26 = load i32, i32* %3, align 4
  %27 = icmp slt i32 %25, %26
  br i1 %27, label %28, label %43

28:                                               ; preds = %24
  %29 = load i32, i32* %4, align 4
  %30 = sext i32 %29 to i64
  %31 = getelementptr inbounds [300 x i32], [300 x i32]* %1, i64 0, i64 %30
  %32 = load i32, i32* %31, align 4
  %33 = load i32, i32* %3, align 4
  %34 = sext i32 %33 to i64
  %35 = getelementptr inbounds [300 x i32], [300 x i32]* %1, i64 0, i64 %34
  %36 = load i32, i32* %35, align 4
  %37 = icmp eq i32 %32, %36
  br i1 %37, label %38, label %39

38:                                               ; preds = %28
  br label %43

39:                                               ; preds = %28
  br label %40

40:                                               ; preds = %39
  %41 = load i32, i32* %4, align 4
  %42 = add nsw i32 %41, 1
  store i32 %42, i32* %4, align 4
  br label %24

43:                                               ; preds = %38, %24
  %44 = load i32, i32* %3, align 4
  %45 = load i32, i32* %4, align 4
  %46 = icmp eq i32 %44, %45
  br i1 %46, label %47, label %53

47:                                               ; preds = %43
  %48 = load i32, i32* %3, align 4
  %49 = sext i32 %48 to i64
  %50 = getelementptr inbounds [300 x i32], [300 x i32]* %1, i64 0, i64 %49
  %51 = load i32, i32* %50, align 4
  %52 = call i32 (i8*, ...) @printf(i8* getelementptr inbounds ([4 x i8], [4 x i8]* @.str.1, i64 0, i64 0), i32 %51)
  br label %53

53:                                               ; preds = %47, %43
  br label %54

54:                                               ; preds = %53, %17
  br label %55

55:                                               ; preds = %54
  %56 = load i32, i32* %3, align 4
  %57 = add nsw i32 %56, 1
  store i32 %57, i32* %3, align 4
  br label %6

58:                                               ; preds = %6
  ret void
}

declare dso_local i32 @__isoc99_scanf(i8*, ...) #1

declare dso_local i32 @printf(i8*, ...) #1


!llvm.module.flags = !{!0}
!llvm.ident = !{!1}

!0 = !{i32 1, !"wchar_size", i32 4}
!1 = !{!"clang version 10.0.0-4ubuntu1 "}
